target datalayout = "e-m:e-p270:32:32-p271:32:32-p272:64:64-i64:64-i128:128-f80:128-n8:16:32:64-S128"
target triple = "x86_64-unknown-linux-gnu"

%"class.std::__cxx11::basic_string" = type { %"struct.std::__cxx11::basic_string<char>::_Alloc_hider", i64, %union.anon }
%"struct.std::__cxx11::basic_string<char>::_Alloc_hider" = type { ptr }
%union.anon = type { i64, [8 x i8] }
%"class.std::__shared_count" = type { ptr }
%"class.std::shared_ptr.165" = type { %"class.std::__shared_ptr.166" }
%"class.std::__shared_ptr.166" = type { ptr, %"class.std::__shared_count" }
%struct.ArrowArrayStream = type { ptr, ptr, ptr, ptr, ptr }
%"class.arrow::(anonymous namespace)::ExportedArrayStream" = type { ptr }
%"struct.arrow::(anonymous namespace)::ExportedArrayStream::PrivateData" = type { %"class.std::shared_ptr.165", %"class.std::__cxx11::basic_string" }

; Function Attrs: mustprogress nounwind uwtable
define internal noundef ptr @_ZN5arrow12_GLOBAL__N_119ExportedArrayStream12private_dataEv(ptr noundef nonnull align 8 dereferenceable(8) %this) #1 align 2 {
entry:
  %this.addr = alloca ptr, align 8
  store ptr %this, ptr %this.addr, align 8
  %this1 = load ptr, ptr %this.addr, align 8
  %stream_ = getelementptr inbounds %"class.arrow::(anonymous namespace)::ExportedArrayStream", ptr %this1, i32 0, i32 0
  %0 = load ptr, ptr %stream_, align 8
  %private_data = getelementptr inbounds %struct.ArrowArrayStream, ptr %0, i32 0, i32 4
  %1 = load ptr, ptr %private_data, align 8
  ret ptr %1
}

; Function Attrs: mustprogress nounwind uwtable
define internal noundef ptr @_ZN5arrow12_GLOBAL__N_119ExportedArrayStream12GetLastErrorEv(ptr noundef nonnull align 8 dereferenceable(8) %this) #1 align 2 {
entry:
  %this.addr = alloca ptr, align 8
  %last_error = alloca ptr, align 8
  store ptr %this, ptr %this.addr, align 8
  %this1 = load ptr, ptr %this.addr, align 8
  %call = call noundef ptr @_ZN5arrow12_GLOBAL__N_119ExportedArrayStream12private_dataEv(ptr noundef nonnull align 8 dereferenceable(8) %this1)
  %last_error_ = getelementptr inbounds %"struct.arrow::(anonymous namespace)::ExportedArrayStream::PrivateData", ptr %call, i32 0, i32 1
  store ptr %last_error_, ptr %last_error, align 8
  %0 = load ptr, ptr %last_error, align 8
  %call2 = call noundef zeroext i1 @_ZNKSt7__cxx1112basic_stringIcSt11char_traitsIcESaIcEE5emptyEv(ptr noundef nonnull align 8 dereferenceable(32) %0) #12
  br i1 %call2, label %cond.true, label %cond.false

cond.true:                                        ; preds = %entry
  br label %cond.end

cond.false:                                       ; preds = %entry
  %1 = load ptr, ptr %last_error, align 8
  %call3 = call noundef ptr @_ZNKSt7__cxx1112basic_stringIcSt11char_traitsIcESaIcEE5c_strEv(ptr noundef nonnull align 8 dereferenceable(32) %1) #12
  br label %cond.end

cond.end:                                         ; preds = %cond.false, %cond.true
  %cond = phi ptr [ null, %cond.true ], [ %call3, %cond.false ]
  ret ptr %cond
}

; Function Attrs: mustprogress nounwind uwtable
define internal void @_ZN5arrow12_GLOBAL__N_119ExportedArrayStreamC2EP16ArrowArrayStream(ptr noundef nonnull align 8 dereferenceable(8) %this, ptr noundef %stream) unnamed_addr #1 align 2 {
entry:
  %this.addr = alloca ptr, align 8
  %stream.addr = alloca ptr, align 8
  store ptr %this, ptr %this.addr, align 8
  store ptr %stream, ptr %stream.addr, align 8
  %this1 = load ptr, ptr %this.addr, align 8
  %stream_ = getelementptr inbounds %"class.arrow::(anonymous namespace)::ExportedArrayStream", ptr %this1, i32 0, i32 0
  %0 = load ptr, ptr %stream.addr, align 8
  store ptr %0, ptr %stream_, align 8
  ret void
}

; Function Attrs: mustprogress uwtable
define internal noundef ptr @_ZN5arrow12_GLOBAL__N_119ExportedArrayStream18StaticGetLastErrorEP16ArrowArrayStream(ptr noundef %stream) #0 align 2 {
entry:
  %stream.addr = alloca ptr, align 8
  %ref.tmp = alloca %"class.arrow::(anonymous namespace)::ExportedArrayStream", align 8
  store ptr %stream, ptr %stream.addr, align 8
  %0 = load ptr, ptr %stream.addr, align 8
  call void @_ZN5arrow12_GLOBAL__N_119ExportedArrayStreamC2EP16ArrowArrayStream(ptr noundef nonnull align 8 dereferenceable(8) %ref.tmp, ptr noundef %0)
  %call = call noundef ptr @_ZN5arrow12_GLOBAL__N_119ExportedArrayStream12GetLastErrorEv(ptr noundef nonnull align 8 dereferenceable(8) %ref.tmp)
  ret ptr %call
}