; Function Attrs: mustprogress nounwind uwtable
define internal noundef ptr @_ZN5arrow12_GLOBAL__N_119ExportedArrayStream18StaticGetLastErrorEP16ArrowArrayStream(ptr nocapture noundef readonly %stream) #1 align 2 {
entry:
  %0 = getelementptr i8, ptr %stream, i64 32
  %ref.tmp.val.val = load ptr, ptr %0, align 8
  %last_error_.i = getelementptr inbounds i8, ptr %ref.tmp.val.val, i64 16
  %call2.i = tail call noundef zeroext i1 @_ZNKSt7__cxx1112basic_stringIcSt11char_traitsIcESaIcEE5emptyEv(ptr noundef nonnull align 8 dereferenceable(32) %last_error_.i) #24
  br i1 %call2.i, label %_ZN5arrow12_GLOBAL__N_119ExportedArrayStream12GetLastErrorEv.exit, label %cond.false.i

cond.false.i:                                     ; preds = %entry
  %call3.i = tail call noundef ptr @_ZNKSt7__cxx1112basic_stringIcSt11char_traitsIcESaIcEE5c_strEv(ptr noundef nonnull align 8 dereferenceable(32) %last_error_.i) #24
  br label %_ZN5arrow12_GLOBAL__N_119ExportedArrayStream12GetLastErrorEv.exit

_ZN5arrow12_GLOBAL__N_119ExportedArrayStream12GetLastErrorEv.exit: ; preds = %entry, %cond.false.i
  %cond.i = phi ptr [ %call3.i, %cond.false.i ], [ null, %entry ]
  ret ptr %cond.i
}